Certificate:
    Data:
        Version: 3 (0x2)
        Serial Number: 1 (0x1)
        Signature Algorithm: sha1WithRSAEncryption
        Issuer: C=BA, ST=RS, L=Banja Luka, O=Elektrotehnicki fakultet, OU=ETF, CN=admin/emailAddress=admin
        Validity
            Not Before: Jun 10 15:39:26 2023 GMT
            Not After : Dec  7 15:39:26 2023 GMT
        Subject: C=BA, ST=RS, O=Elektrotehnicki fakultet, OU=ETF, CN=dejan/emailAddress=dejan@mail.com
        Subject Public Key Info:
            Public Key Algorithm: rsaEncryption
                Public-Key: (2048 bit)
                Modulus:
                    00:9f:8b:2c:43:12:27:d6:43:6e:af:c9:8f:46:7b:
                    bb:17:2a:f0:46:81:85:8a:bb:ad:0c:ea:53:97:5a:
                    ec:b4:8d:95:f7:12:ea:59:fd:52:ec:97:f7:46:7a:
                    49:ef:11:11:da:4b:f7:ff:e9:00:b1:53:2d:58:4d:
                    b3:16:ab:2d:3d:1e:d8:5c:92:b3:c9:2c:74:98:00:
                    95:64:bc:2b:a0:18:24:c2:ff:d6:6a:42:34:36:80:
                    13:60:d6:4b:b2:62:a5:6e:c5:4a:65:02:cd:41:d0:
                    03:65:5b:90:b1:23:fb:e8:b6:a2:f3:88:1f:78:8c:
                    55:f6:75:bc:d7:f9:7f:05:93:70:f5:e1:7f:93:ea:
                    cf:68:7c:99:33:27:9f:de:c6:2e:65:b9:67:9d:75:
                    c4:34:ea:46:88:1b:d7:5b:bb:81:e3:a9:4a:dd:1a:
                    7a:35:2f:b7:be:37:4c:50:e1:76:04:28:3e:c1:fc:
                    80:82:6d:b3:f8:ab:39:91:43:e5:57:ad:20:a2:2c:
                    8e:c1:9f:a3:68:3d:b5:bf:51:1a:20:53:3d:64:2f:
                    57:02:05:aa:d6:fb:2e:47:77:df:c1:1e:53:08:2b:
                    7f:0b:2c:00:57:66:6f:62:6f:66:af:a3:66:b7:23:
                    f2:3c:42:89:1c:3c:0d:99:93:6c:fa:eb:95:b3:96:
                    d9:45
                Exponent: 65537 (0x10001)
        X509v3 extensions:
            X509v3 Basic Constraints: 
                CA:FALSE
            X509v3 Key Usage: 
                Digital Signature
            X509v3 Extended Key Usage: 
                TLS Web Client Authentication, TLS Web Server Authentication
            Netscape Comment: 
                OpenSSL Generated Certificate
            X509v3 Subject Key Identifier: 
                61:D5:02:74:6B:9C:AA:DA:7D:0F:37:D1:21:EF:18:40:80:0C:AD:E5
            X509v3 Authority Key Identifier: 
                CC:59:14:5C:32:2E:7A:C7:97:F9:F1:22:BD:AF:23:FB:1C:7C:6C:EF
            X509v3 CRL Distribution Points: 
                Full Name:
                  URI:http://192.168.21.89/rootcrl.pem
    Signature Algorithm: sha1WithRSAEncryption
    Signature Value:
        6b:ad:51:e8:9c:ee:44:51:40:34:73:2b:80:ad:22:75:21:08:
        bf:c3:10:51:3a:ca:94:21:7e:5d:f2:94:f7:17:78:63:5c:7c:
        9b:5b:af:5f:61:af:bf:c5:4c:99:7d:1d:35:03:4d:5d:b4:6c:
        99:12:92:f7:04:3e:6c:02:bd:a0:1c:34:55:4e:7b:cc:84:43:
        dd:74:8d:96:5e:83:bb:2e:d6:93:a5:56:98:7c:1e:a4:e8:e1:
        55:99:ac:f1:e8:3a:f3:4f:66:98:fd:e7:80:55:7c:f8:d5:24:
        33:e2:9a:1b:6b:51:68:8d:a5:f1:e0:7a:89:89:68:89:21:e8:
        f0:1d:f1:61:02:d9:fe:35:7c:fe:0a:dd:c6:b8:53:71:bb:5b:
        48:07:c0:e8:e2:a7:f0:db:7f:e0:55:0c:a7:64:8c:a8:d6:e6:
        97:45:c1:03:09:83:ba:ab:7e:40:3f:42:b7:de:4a:30:e1:b1:
        2c:9a:0e:9f:e1:df:da:e4:9e:fa:f5:f6:f6:4b:3e:64:20:bc:
        a9:6b:3d:57:14:3a:c0:4c:51:95:93:94:95:f5:cb:bd:e0:30:
        0b:4c:75:52:34:05:95:b1:d9:67:7e:cf:2e:7b:69:c3:7f:3a:
        e5:6c:67:f7:8b:74:2f:74:a8:82:ad:a0:dc:11:0d:e2:f6:2f:
        5b:14:53:7e:d3:05:3b:ea:a4:a2:bf:47:dc:ba:e0:53:ae:05:
        43:c8:a8:1a:8d:b9:0e:e8:9e:0d:2c:78:c4:b3:d8:21:11:85:
        5d:e2:b2:fc:8a:70:12:27:49:e9:ad:b6:21:89:d5:8b:c3:6e:
        38:da:18:ef:d0:6d:f1:d5:b9:22:ad:e6:04:ee:86:46:35:15:
        30:50:87:9e:ba:ed:03:bb:62:3a:49:33:39:9d:0a:52:ae:65:
        07:91:34:e2:bf:35:7b:af:4c:97:62:1e:c5:6d:8a:54:6a:45:
        b5:80:0a:49:cd:42:a5:52:52:72:8c:4a:e6:6e:13:1b:6f:8e:
        e1:e4:bc:2a:65:29:f8:86:f6:14:57:4a:1f:93:4f:ea:70:85:
        f0:71:2f:10:45:f9:da:f4:0f:7d:15:89:8b:ae:03:cb:01:6e:
        03:bf:48:cb:9f:40:ab:dd:d3:13:0f:ec:0d:3b:f4:38:5b:60:
        e7:bd:62:fa:ac:a1:87:cd:e5:24:1a:6e:c4:b1:c1:d8:8d:81:
        09:c9:1a:11:c5:92:61:ca:e2:b9:b0:0b:fd:3e:cb:92:07:72:
        52:d1:5f:b8:97:f4:33:3a:4c:38:e5:8b:5d:83:8e:36:e0:8b:
        e4:5f:13:a0:96:35:13:70:47:80:38:68:f5:9b:1d:61:f7:9a:
        0d:9b:2d:8f:6e:52:08:5f
-----BEGIN CERTIFICATE-----
MIIFWDCCA0CgAwIBAgIBATANBgkqhkiG9w0BAQUFADCBhjELMAkGA1UEBhMCQkEx
CzAJBgNVBAgTAlJTMRMwEQYDVQQHEwpCYW5qYSBMdWthMSEwHwYDVQQKExhFbGVr
dHJvdGVobmlja2kgZmFrdWx0ZXQxDDAKBgNVBAsTA0VURjEOMAwGA1UEAxMFYWRt
aW4xFDASBgkqhkiG9w0BCQEWBWFkbWluMB4XDTIzMDYxMDE1MzkyNloXDTIzMTIw
NzE1MzkyNlowejELMAkGA1UEBhMCQkExCzAJBgNVBAgTAlJTMSEwHwYDVQQKExhF
bGVrdHJvdGVobmlja2kgZmFrdWx0ZXQxDDAKBgNVBAsTA0VURjEOMAwGA1UEAxMF
ZGVqYW4xHTAbBgkqhkiG9w0BCQEWDmRlamFuQG1haWwuY29tMIIBIjANBgkqhkiG
9w0BAQEFAAOCAQ8AMIIBCgKCAQEAn4ssQxIn1kNur8mPRnu7FyrwRoGFirutDOpT
l1rstI2V9xLqWf1S7Jf3RnpJ7xER2kv3/+kAsVMtWE2zFqstPR7YXJKzySx0mACV
ZLwroBgkwv/WakI0NoATYNZLsmKlbsVKZQLNQdADZVuQsSP76Lai84gfeIxV9nW8
1/l/BZNw9eF/k+rPaHyZMyef3sYuZblnnXXENOpGiBvXW7uB46lK3Rp6NS+3vjdM
UOF2BCg+wfyAgm2z+Ks5kUPlV60goiyOwZ+jaD21v1EaIFM9ZC9XAgWq1vsuR3ff
wR5TCCt/CywAV2ZvYm9mr6NmtyPyPEKJHDwNmZNs+uuVs5bZRQIDAQABo4HbMIHY
MAkGA1UdEwQCMAAwCwYDVR0PBAQDAgeAMB0GA1UdJQQWMBQGCCsGAQUFBwMCBggr
BgEFBQcDATAsBglghkgBhvhCAQ0EHxYdT3BlblNTTCBHZW5lcmF0ZWQgQ2VydGlm
aWNhdGUwHQYDVR0OBBYEFGHVAnRrnKrafQ830SHvGECADK3lMB8GA1UdIwQYMBaA
FMxZFFwyLnrHl/nxIr2vI/scfGzvMDEGA1UdHwQqMCgwJqAkoCKGIGh0dHA6Ly8x
OTIuMTY4LjIxLjg5L3Jvb3RjcmwucGVtMA0GCSqGSIb3DQEBBQUAA4ICAQBrrVHo
nO5EUUA0cyuArSJ1IQi/wxBROsqUIX5d8pT3F3hjXHybW69fYa+/xUyZfR01A01d
tGyZEpL3BD5sAr2gHDRVTnvMhEPddI2WXoO7LtaTpVaYfB6k6OFVmazx6DrzT2aY
/eeAVXz41SQz4poba1FojaXx4HqJiWiJIejwHfFhAtn+NXz+Ct3GuFNxu1tIB8Do
4qfw23/gVQynZIyo1uaXRcEDCYO6q35AP0K33kow4bEsmg6f4d/a5J769fb2Sz5k
ILypaz1XFDrATFGVk5SV9cu94DALTHVSNAWVsdlnfs8ue2nDfzrlbGf3i3QvdKiC
raDcEQ3i9i9bFFN+0wU76qSiv0fcuuBTrgVDyKgajbkO6J4NLHjEs9ghEYVd4rL8
inASJ0nprbYhidWLw2442hjv0G3x1bkireYE7oZGNRUwUIeeuu0Du2I6STM5nQpS
rmUHkTTivzV7r0yXYh7FbYpUakW1gApJzUKlUlJyjErmbhMbb47h5LwqZSn4hvYU
V0ofk0/qcIXwcS8QRfna9A99FYmLrgPLAW4Dv0jLn0Cr3dMTD+wNO/Q4W2DnvWL6
rKGHzeUkGm7EscHYjYEJyRoRxZJhyuK5sAv9PsuSB3JS0V+4l/QzOkw45Ytdg442
4IvkXxOgljUTcEeAOGj1mx1h95oNmy2PblIIXw==
-----END CERTIFICATE-----
