Certificate:
    Data:
        Version: 3 (0x2)
        Serial Number: 1 (0x1)
        Signature Algorithm: sha1WithRSAEncryption
        Issuer: C=BA, ST=RS, L=Banja Luka, O=Elektrotehnicki fakultet, OU=ETF, CN=admin/emailAddress=admin
        Validity
            Not Before: Jun  6 22:58:18 2023 GMT
            Not After : Dec  3 22:58:18 2023 GMT
        Subject: C=BA, ST=RS, O=Elektrotehnicki fakultet, OU=ETF, CN=dejan/emailAddress=dejan
        Subject Public Key Info:
            Public Key Algorithm: rsaEncryption
                RSA Public-Key: (2048 bit)
                Modulus:
                    00:ad:2e:6c:a2:30:d2:40:ed:15:d9:7e:e5:d3:d7:
                    cc:5a:4e:71:f0:59:8f:e2:49:a6:1f:fe:14:06:c6:
                    36:10:e4:0f:cf:93:d0:08:be:cf:ed:9b:86:4c:00:
                    47:b7:7b:6a:45:fa:ec:5c:11:53:ad:e1:68:56:69:
                    e2:54:3d:a9:99:ae:b5:aa:5e:43:12:a7:6b:18:df:
                    2e:aa:04:12:e6:cd:66:3a:94:79:15:7a:4d:3b:c7:
                    fe:6c:99:f2:63:eb:ea:05:7f:0c:d6:06:da:ff:25:
                    89:6d:b6:3f:5d:43:a0:2d:b1:a5:b1:dc:e3:70:d7:
                    61:ac:df:ae:8d:b7:4e:76:72:dc:04:07:fe:37:93:
                    c9:de:a9:8b:0d:4c:30:f2:81:eb:8c:57:ca:af:1c:
                    a2:c8:5b:c1:e8:72:ea:b8:04:6d:0e:dd:f5:1f:65:
                    e0:26:67:b0:5c:89:46:37:25:17:38:25:a1:c1:cb:
                    7b:d4:15:bf:0b:eb:05:cf:70:b6:ae:76:b3:65:3d:
                    d1:f4:b4:8a:1f:1e:66:bb:fb:ee:fe:ca:8c:29:75:
                    ad:90:0a:2e:bd:39:fa:7a:3d:b0:57:9e:6d:48:e1:
                    13:90:4d:bf:2f:c4:d3:c2:f6:c3:57:40:14:8d:80:
                    73:94:fc:1a:a1:3d:2d:3e:ae:32:33:ef:85:df:a0:
                    36:73
                Exponent: 65537 (0x10001)
        X509v3 extensions:
            X509v3 Basic Constraints: 
                CA:FALSE
            X509v3 Key Usage: 
                Digital Signature
            X509v3 Extended Key Usage: 
                TLS Web Client Authentication, TLS Web Server Authentication
            Netscape Comment: 
                OpenSSL Generated Certificate
            X509v3 Subject Key Identifier: 
                10:BA:44:73:49:90:E2:65:BF:E6:59:C2:AB:EB:52:58:1A:20:C2:31
            X509v3 Authority Key Identifier: 
                keyid:CC:59:14:5C:32:2E:7A:C7:97:F9:F1:22:BD:AF:23:FB:1C:7C:6C:EF

            X509v3 CRL Distribution Points: 

                Full Name:
                  URI:http://192.168.21.89/rootcrl.pem

    Signature Algorithm: sha1WithRSAEncryption
         42:e1:7c:25:c0:88:83:9d:b4:f4:5f:24:b0:e6:16:1c:d3:25:
         06:e5:21:f0:82:31:62:13:78:27:97:7a:d0:44:8a:c2:2a:29:
         07:cc:2e:6f:0e:b1:09:13:83:cd:1e:4a:bc:f6:ca:a0:f8:21:
         13:3f:8d:8f:bc:1e:dd:4c:cc:fa:60:c3:ca:97:d3:cb:e5:ba:
         2b:ad:6c:c2:5c:52:ca:4c:13:4b:db:ee:76:9b:4e:79:43:d7:
         3d:d7:e9:f5:5c:fc:60:21:76:83:2b:70:d4:a4:82:91:63:ae:
         95:51:c5:51:4b:5a:51:68:fb:74:31:a0:d9:7d:dc:d9:84:e8:
         5e:de:0d:79:a8:c8:c1:d4:a7:67:1c:ca:c3:f8:81:0a:ef:60:
         55:5d:6b:48:5f:a3:a4:bb:01:55:ae:23:8c:c6:7a:5e:03:a8:
         af:65:86:94:83:08:24:30:66:fc:37:78:f1:2a:4b:54:28:55:
         e7:ca:f0:cc:91:5d:35:1c:a9:c6:1d:83:af:83:79:68:1a:5e:
         dd:f6:17:54:df:3a:b9:ee:25:b0:58:f6:fc:93:c5:7f:ae:40:
         17:33:cc:7e:76:1c:14:c4:9f:83:88:c7:aa:74:b8:48:5b:b7:
         a9:6a:54:47:d6:a4:4e:dd:55:0e:9e:e6:25:26:8e:99:8a:d9:
         60:b9:46:9a:c6:ee:21:42:35:58:93:85:4d:7a:38:d8:60:c7:
         9e:39:d9:d0:d4:d1:e6:95:94:b7:89:f3:10:bf:1e:99:75:50:
         8a:7b:58:42:6e:d8:a8:35:42:8e:e7:f3:48:7a:ea:27:25:62:
         7a:ff:d6:ae:f8:47:3d:89:07:66:a1:89:b1:8c:30:ff:15:30:
         a0:c9:f8:4e:80:87:99:89:7d:ac:6b:fd:39:49:f8:bf:15:4e:
         32:4a:45:5c:8f:67:7a:8e:97:4d:e6:51:c0:19:29:73:45:98:
         54:78:0e:a6:61:41:ba:74:78:92:8f:85:26:f3:6b:05:a4:99:
         4d:22:e6:a0:07:9a:bf:87:39:6a:e6:11:70:9f:da:46:95:82:
         8f:84:c8:16:e9:a0:00:3b:2f:32:5b:44:07:5f:b1:03:d8:68:
         07:a3:af:c8:43:47:3b:b7:d6:e0:95:0a:ae:16:0a:37:a7:4b:
         45:36:90:4e:1c:02:53:d1:9d:6f:ba:db:f1:d4:6d:51:f7:52:
         2f:cf:30:e1:af:0d:05:23:ef:ac:80:69:fe:33:9f:ca:8a:d4:
         f2:d5:e6:31:cd:0b:1b:a3:28:d1:c7:d4:c2:b4:9a:db:ff:5b:
         94:e5:dd:db:e5:81:1f:e7:fb:4d:bf:d2:e1:c4:67:4e:ef:c5:
         4e:e6:d1:9f:0e:5c:58:ee
-----BEGIN CERTIFICATE-----
MIIFTzCCAzegAwIBAgIBATANBgkqhkiG9w0BAQUFADCBhjELMAkGA1UEBhMCQkEx
CzAJBgNVBAgTAlJTMRMwEQYDVQQHEwpCYW5qYSBMdWthMSEwHwYDVQQKExhFbGVr
dHJvdGVobmlja2kgZmFrdWx0ZXQxDDAKBgNVBAsTA0VURjEOMAwGA1UEAxMFYWRt
aW4xFDASBgkqhkiG9w0BCQEWBWFkbWluMB4XDTIzMDYwNjIyNTgxOFoXDTIzMTIw
MzIyNTgxOFowcTELMAkGA1UEBhMCQkExCzAJBgNVBAgTAlJTMSEwHwYDVQQKExhF
bGVrdHJvdGVobmlja2kgZmFrdWx0ZXQxDDAKBgNVBAsTA0VURjEOMAwGA1UEAxMF
ZGVqYW4xFDASBgkqhkiG9w0BCQEWBWRlamFuMIIBIjANBgkqhkiG9w0BAQEFAAOC
AQ8AMIIBCgKCAQEArS5sojDSQO0V2X7l09fMWk5x8FmP4kmmH/4UBsY2EOQPz5PQ
CL7P7ZuGTABHt3tqRfrsXBFTreFoVmniVD2pma61ql5DEqdrGN8uqgQS5s1mOpR5
FXpNO8f+bJnyY+vqBX8M1gba/yWJbbY/XUOgLbGlsdzjcNdhrN+ujbdOdnLcBAf+
N5PJ3qmLDUww8oHrjFfKrxyiyFvB6HLquARtDt31H2XgJmewXIlGNyUXOCWhwct7
1BW/C+sFz3C2rnazZT3R9LSKHx5mu/vu/sqMKXWtkAouvTn6ej2wV55tSOETkE2/
L8TTwvbDV0AUjYBzlPwaoT0tPq4yM++F36A2cwIDAQABo4HbMIHYMAkGA1UdEwQC
MAAwCwYDVR0PBAQDAgeAMB0GA1UdJQQWMBQGCCsGAQUFBwMCBggrBgEFBQcDATAs
BglghkgBhvhCAQ0EHxYdT3BlblNTTCBHZW5lcmF0ZWQgQ2VydGlmaWNhdGUwHQYD
VR0OBBYEFBC6RHNJkOJlv+ZZwqvrUlgaIMIxMB8GA1UdIwQYMBaAFMxZFFwyLnrH
l/nxIr2vI/scfGzvMDEGA1UdHwQqMCgwJqAkoCKGIGh0dHA6Ly8xOTIuMTY4LjIx
Ljg5L3Jvb3RjcmwucGVtMA0GCSqGSIb3DQEBBQUAA4ICAQBC4XwlwIiDnbT0XySw
5hYc0yUG5SHwgjFiE3gnl3rQRIrCKikHzC5vDrEJE4PNHkq89sqg+CETP42PvB7d
TMz6YMPKl9PL5borrWzCXFLKTBNL2+52m055Q9c91+n1XPxgIXaDK3DUpIKRY66V
UcVRS1pRaPt0MaDZfdzZhOhe3g15qMjB1KdnHMrD+IEK72BVXWtIX6OkuwFVriOM
xnpeA6ivZYaUgwgkMGb8N3jxKktUKFXnyvDMkV01HKnGHYOvg3loGl7d9hdU3zq5
7iWwWPb8k8V/rkAXM8x+dhwUxJ+DiMeqdLhIW7epalRH1qRO3VUOnuYlJo6Zitlg
uUaaxu4hQjVYk4VNejjYYMeeOdnQ1NHmlZS3ifMQvx6ZdVCKe1hCbtioNUKO5/NI
euonJWJ6/9au+Ec9iQdmoYmxjDD/FTCgyfhOgIeZiX2sa/05Sfi/FU4ySkVcj2d6
jpdN5lHAGSlzRZhUeA6mYUG6dHiSj4Um82sFpJlNIuagB5q/hzlq5hFwn9pGlYKP
hMgW6aAAOy8yW0QHX7ED2GgHo6/IQ0c7t9bglQquFgo3p0tFNpBOHAJT0Z1vutvx
1G1R91IvzzDhrw0FI++sgGn+M5/KitTy1eYxzQsboyjRx9TCtJrb/1uU5d3b5YEf
5/tNv9LhxGdO78VO5tGfDlxY7g==
-----END CERTIFICATE-----
