Certificate:
    Data:
        Version: 3 (0x2)
        Serial Number: 1 (0x1)
        Signature Algorithm: sha1WithRSAEncryption
        Issuer: C=BA, ST=RS, L=Banja Luka, O=Elektrotehnicki fakultet, OU=ETF, CN=admin/emailAddress=admin
        Validity
            Not Before: Jun  8 14:03:17 2023 GMT
            Not After : Dec  5 14:03:17 2023 GMT
        Subject: C=BA, ST=RS, O=Elektrotehnicki fakultet, OU=ETF, CN=dejan/emailAddress=dejan@mail.com
        Subject Public Key Info:
            Public Key Algorithm: rsaEncryption
                Public-Key: (2048 bit)
                Modulus:
                    00:b3:66:2e:79:b4:b9:eb:de:3f:c7:22:62:5a:f4:
                    7e:77:24:6d:71:b5:5f:77:2e:d4:49:83:08:7c:3f:
                    0e:5e:07:13:74:20:fe:f3:69:9e:2e:3d:29:d7:43:
                    00:ba:7b:c5:a2:12:5b:12:7a:5f:8a:8d:96:6e:71:
                    ed:fa:a7:af:48:35:ea:2f:4d:59:a3:e8:30:e0:00:
                    e0:63:fd:96:84:05:fe:ab:73:d3:ff:a9:d5:7f:be:
                    92:5c:62:2f:9f:3e:06:f6:40:70:1e:96:d7:5d:15:
                    de:cf:6b:8d:f3:d8:9a:6f:bf:16:ab:3d:a6:1e:f4:
                    ff:a7:fe:fd:7a:21:16:90:69:3d:10:e4:d6:65:89:
                    e1:b7:f6:27:2f:08:2b:50:4f:31:12:11:03:23:5b:
                    25:d5:7f:61:f1:67:13:b3:4e:23:aa:f0:fd:68:e2:
                    72:4d:8c:49:57:ec:5d:62:c1:cc:e1:cc:60:e6:37:
                    7e:24:0c:6f:01:f9:07:89:f0:55:b2:ff:fd:7d:9f:
                    33:42:1f:9c:62:11:a6:4c:75:05:66:3f:6e:d9:e4:
                    01:1b:08:4c:04:5f:d2:2b:41:48:ca:17:35:87:b5:
                    fc:4c:25:64:57:64:21:1b:18:85:25:ee:91:9c:87:
                    0b:19:a5:13:a6:83:6b:db:a8:70:58:4b:9b:86:19:
                    60:9d
                Exponent: 65537 (0x10001)
        X509v3 extensions:
            X509v3 Basic Constraints: 
                CA:FALSE
            X509v3 Key Usage: 
                Digital Signature
            X509v3 Extended Key Usage: 
                TLS Web Client Authentication, TLS Web Server Authentication
            Netscape Comment: 
                OpenSSL Generated Certificate
            X509v3 Subject Key Identifier: 
                9D:B3:95:5B:4C:C5:1E:94:17:74:D8:BB:EF:E9:AE:8D:0F:89:67:10
            X509v3 Authority Key Identifier: 
                CC:59:14:5C:32:2E:7A:C7:97:F9:F1:22:BD:AF:23:FB:1C:7C:6C:EF
            X509v3 CRL Distribution Points: 
                Full Name:
                  URI:http://192.168.21.89/rootcrl.pem
    Signature Algorithm: sha1WithRSAEncryption
    Signature Value:
        42:00:43:c9:5d:15:78:71:97:eb:40:b5:b1:af:c2:7c:02:52:
        db:10:67:1f:9f:8c:33:a9:13:17:36:9f:73:f4:ee:01:4f:15:
        59:90:0a:d9:64:22:ed:9b:a9:a9:41:c3:38:29:a2:63:cb:88:
        29:35:d3:67:ac:ee:bd:0f:99:03:a2:c7:d8:c9:e8:13:34:d7:
        04:b8:8c:4d:6a:00:2a:e4:e1:be:bd:12:84:b9:d1:a7:e5:10:
        41:06:63:bb:d9:30:76:98:08:e7:9b:da:15:f8:30:64:5d:ee:
        12:f7:92:12:d9:e5:17:69:b2:7f:c9:7f:c1:fd:56:c4:bc:23:
        ed:2d:67:6a:ee:fc:cb:05:62:4f:0f:09:13:a7:be:04:23:92:
        03:d1:bd:47:03:c1:bf:57:85:e5:d9:54:cc:52:9e:9b:bc:1c:
        d8:cd:ac:25:ed:da:1a:f2:aa:21:b8:7b:c6:14:8a:d9:ce:82:
        74:13:a0:08:6d:0f:16:71:41:9b:5f:24:ec:c2:3f:1c:59:5d:
        a6:6a:ba:8e:36:71:61:0c:a3:42:2c:75:1d:e9:3e:c0:83:e0:
        5a:3a:32:9d:7b:fe:ef:1c:38:81:5b:d9:be:f6:79:de:c5:cb:
        bb:6e:72:f5:9a:d1:c8:99:07:64:4d:14:f2:c1:31:04:01:45:
        ef:c8:a9:82:96:1d:2d:7e:d5:f2:a6:ff:03:00:4e:e2:49:dd:
        fe:f3:e5:ee:b4:88:d1:a8:80:0d:20:62:d0:e7:a1:e9:78:e9:
        cc:4e:63:33:64:9e:41:1a:a5:9e:bb:cc:a6:0d:31:85:31:a5:
        9c:8c:ee:7e:ad:66:01:ee:57:f8:28:7f:ff:82:54:49:ea:3b:
        98:b9:34:86:09:e3:41:c8:fa:e9:f7:92:e4:1f:47:54:72:ff:
        af:4f:bf:b8:c4:81:5c:51:0d:fa:54:9c:fb:a7:6f:49:78:c9:
        8b:a4:1d:56:48:d2:c8:b4:f4:40:93:1b:9a:7e:03:33:7a:e2:
        9c:0c:86:f7:23:d5:31:73:0b:9d:51:aa:5c:7d:50:74:f7:87:
        a0:cf:0a:8a:28:0f:83:86:03:3c:d6:d6:60:1e:4c:91:2b:38:
        69:bd:91:a1:8f:8b:2b:80:9b:23:08:9c:62:e6:96:fb:92:d7:
        26:ac:f3:7f:00:d9:97:1d:28:ef:df:62:b6:4d:59:d9:91:e6:
        36:2c:2c:5f:85:fd:69:53:a1:d6:c2:c4:c4:4c:2a:c9:75:0a:
        23:15:f1:2a:c8:19:6f:64:92:3d:cf:46:1f:11:ba:92:be:69:
        84:a9:ff:3d:c3:c5:79:01:34:0b:d1:1d:94:35:ae:08:2b:ea:
        0b:67:70:6f:c4:0b:f6:2e
-----BEGIN CERTIFICATE-----
MIIFWDCCA0CgAwIBAgIBATANBgkqhkiG9w0BAQUFADCBhjELMAkGA1UEBhMCQkEx
CzAJBgNVBAgTAlJTMRMwEQYDVQQHEwpCYW5qYSBMdWthMSEwHwYDVQQKExhFbGVr
dHJvdGVobmlja2kgZmFrdWx0ZXQxDDAKBgNVBAsTA0VURjEOMAwGA1UEAxMFYWRt
aW4xFDASBgkqhkiG9w0BCQEWBWFkbWluMB4XDTIzMDYwODE0MDMxN1oXDTIzMTIw
NTE0MDMxN1owejELMAkGA1UEBhMCQkExCzAJBgNVBAgTAlJTMSEwHwYDVQQKExhF
bGVrdHJvdGVobmlja2kgZmFrdWx0ZXQxDDAKBgNVBAsTA0VURjEOMAwGA1UEAxMF
ZGVqYW4xHTAbBgkqhkiG9w0BCQEWDmRlamFuQG1haWwuY29tMIIBIjANBgkqhkiG
9w0BAQEFAAOCAQ8AMIIBCgKCAQEAs2YuebS5694/xyJiWvR+dyRtcbVfdy7USYMI
fD8OXgcTdCD+82meLj0p10MAunvFohJbEnpfio2WbnHt+qevSDXqL01Zo+gw4ADg
Y/2WhAX+q3PT/6nVf76SXGIvnz4G9kBwHpbXXRXez2uN89iab78Wqz2mHvT/p/79
eiEWkGk9EOTWZYnht/YnLwgrUE8xEhEDI1sl1X9h8WcTs04jqvD9aOJyTYxJV+xd
YsHM4cxg5jd+JAxvAfkHifBVsv/9fZ8zQh+cYhGmTHUFZj9u2eQBGwhMBF/SK0FI
yhc1h7X8TCVkV2QhGxiFJe6RnIcLGaUTpoNr26hwWEubhhlgnQIDAQABo4HbMIHY
MAkGA1UdEwQCMAAwCwYDVR0PBAQDAgeAMB0GA1UdJQQWMBQGCCsGAQUFBwMCBggr
BgEFBQcDATAsBglghkgBhvhCAQ0EHxYdT3BlblNTTCBHZW5lcmF0ZWQgQ2VydGlm
aWNhdGUwHQYDVR0OBBYEFJ2zlVtMxR6UF3TYu+/pro0PiWcQMB8GA1UdIwQYMBaA
FMxZFFwyLnrHl/nxIr2vI/scfGzvMDEGA1UdHwQqMCgwJqAkoCKGIGh0dHA6Ly8x
OTIuMTY4LjIxLjg5L3Jvb3RjcmwucGVtMA0GCSqGSIb3DQEBBQUAA4ICAQBCAEPJ
XRV4cZfrQLWxr8J8AlLbEGcfn4wzqRMXNp9z9O4BTxVZkArZZCLtm6mpQcM4KaJj
y4gpNdNnrO69D5kDosfYyegTNNcEuIxNagAq5OG+vRKEudGn5RBBBmO72TB2mAjn
m9oV+DBkXe4S95IS2eUXabJ/yX/B/VbEvCPtLWdq7vzLBWJPDwkTp74EI5ID0b1H
A8G/V4Xl2VTMUp6bvBzYzawl7doa8qohuHvGFIrZzoJ0E6AIbQ8WcUGbXyTswj8c
WV2marqONnFhDKNCLHUd6T7Ag+BaOjKde/7vHDiBW9m+9nnexcu7bnL1mtHImQdk
TRTywTEEAUXvyKmClh0tftXypv8DAE7iSd3+8+XutIjRqIANIGLQ56HpeOnMTmMz
ZJ5BGqWeu8ymDTGFMaWcjO5+rWYB7lf4KH//glRJ6juYuTSGCeNByPrp95LkH0dU
cv+vT7+4xIFcUQ36VJz7p29JeMmLpB1WSNLItPRAkxuafgMzeuKcDIb3I9Uxcwud
UapcfVB094egzwqKKA+DhgM81tZgHkyRKzhpvZGhj4srgJsjCJxi5pb7ktcmrPN/
ANmXHSjv32K2TVnZkeY2LCxfhf1pU6HWwsTETCrJdQojFfEqyBlvZJI9z0YfEbqS
vmmEqf89w8V5ATQL0R2UNa4IK+oLZ3BvxAv2Lg==
-----END CERTIFICATE-----
