Certificate:
    Data:
        Version: 3 (0x2)
        Serial Number: 2 (0x2)
        Signature Algorithm: sha1WithRSAEncryption
        Issuer: C=BA, ST=RS, L=Banja Luka, O=Elektrotehnicki fakultet, OU=ETF, CN=admin/emailAddress=admin
        Validity
            Not Before: Jun  8 14:03:51 2023 GMT
            Not After : Dec  5 14:03:51 2023 GMT
        Subject: C=BA, ST=RS, O=Elektrotehnicki fakultet, OU=ETF, CN=op/emailAddress=op@mail.com
        Subject Public Key Info:
            Public Key Algorithm: rsaEncryption
                Public-Key: (2048 bit)
                Modulus:
                    00:d6:ab:50:52:3d:32:d0:5d:bd:a0:36:0d:6e:22:
                    5d:a7:3e:21:82:22:5d:a1:0a:d6:f7:42:17:35:37:
                    42:ed:1f:76:f5:43:f6:44:f6:5a:fa:4f:dc:7f:52:
                    bd:40:32:c8:08:78:ac:20:7d:d1:f2:e9:bb:40:0f:
                    c3:2d:5a:a6:c5:54:bb:92:cf:d6:bd:48:9b:be:56:
                    aa:cc:bb:16:cc:68:69:30:65:c3:fd:73:58:49:0e:
                    44:e8:2d:c8:55:41:df:70:6b:97:c8:2c:3f:79:7b:
                    e2:46:67:f8:11:8e:e0:db:18:89:6d:dc:78:09:72:
                    af:4c:cf:67:55:2c:79:4c:c0:25:0e:31:28:5f:39:
                    5e:73:b7:88:c2:75:3f:22:69:1a:0d:ef:57:10:70:
                    16:de:d8:cf:24:5b:e9:d3:73:08:0e:f1:1d:53:8f:
                    7b:4f:4f:d2:1d:74:77:51:a3:60:93:dd:c7:7c:a5:
                    b6:1e:e4:04:b5:0d:70:34:60:83:42:e3:ce:09:f4:
                    3b:89:7d:d6:0c:f4:96:21:eb:bb:b6:cc:c2:87:e7:
                    5c:53:bc:9c:ac:15:d4:c3:77:5a:12:f0:fe:d3:7b:
                    9e:fe:98:a5:ed:92:56:09:f6:4d:d1:21:5c:d9:f6:
                    b7:f8:2d:b7:58:1f:5e:a4:bb:d1:ed:a6:59:a4:a2:
                    7b:d1
                Exponent: 65537 (0x10001)
        X509v3 extensions:
            X509v3 Basic Constraints: 
                CA:FALSE
            X509v3 Key Usage: 
                Digital Signature
            X509v3 Extended Key Usage: 
                TLS Web Client Authentication, TLS Web Server Authentication
            Netscape Comment: 
                OpenSSL Generated Certificate
            X509v3 Subject Key Identifier: 
                D6:62:8D:AF:7E:33:1E:C2:C4:50:DA:D3:40:09:0E:F3:2D:6F:B2:C4
            X509v3 Authority Key Identifier: 
                CC:59:14:5C:32:2E:7A:C7:97:F9:F1:22:BD:AF:23:FB:1C:7C:6C:EF
            X509v3 CRL Distribution Points: 
                Full Name:
                  URI:http://192.168.21.89/rootcrl.pem
    Signature Algorithm: sha1WithRSAEncryption
    Signature Value:
        35:69:02:6f:f8:1b:99:20:20:0f:01:10:2d:f6:ce:b7:12:66:
        4d:3e:45:43:74:26:9a:09:46:87:f5:5a:ab:31:ce:dd:81:ed:
        31:ec:bd:59:3f:3d:74:68:6b:75:d3:ef:9a:e9:ce:0f:2f:6f:
        60:a0:4e:14:4f:15:b0:cf:b0:d8:ba:97:a4:14:c2:d1:f2:62:
        0b:ff:ba:ac:20:cb:d5:cd:00:6f:44:eb:e9:6e:ce:18:a4:ca:
        02:d9:f8:e2:07:ac:98:7b:91:2c:71:a3:a5:17:21:31:83:fd:
        aa:71:de:7b:71:3b:ad:26:0f:1a:cf:7b:f6:92:49:d3:57:22:
        10:12:a7:9a:ef:d3:69:7b:27:2d:ca:2f:8d:a2:e3:9e:f3:bb:
        03:bb:7a:26:e2:4b:b9:21:03:f8:19:7a:5f:b1:2b:7e:ed:bd:
        4a:1f:b5:7a:2b:44:e7:e7:24:1f:69:99:4d:30:eb:29:c4:b7:
        ad:11:61:3d:19:98:bf:f2:64:74:24:55:ff:96:50:18:ec:e7:
        d4:35:41:f7:15:8a:4a:6d:ee:9b:d0:ab:89:c2:ac:5b:45:d4:
        4d:a2:4a:f2:29:52:9e:74:5f:b7:17:ea:85:9a:f9:ec:a5:b0:
        cf:47:ef:22:2f:5a:09:d2:ad:a6:43:33:a0:73:45:4a:d5:6b:
        f0:44:97:f6:9c:7b:54:e2:7a:91:e8:b1:5b:7b:29:13:94:76:
        a8:94:28:cd:d1:b1:8a:24:3f:22:7c:24:c1:e1:93:2a:91:3b:
        3d:e8:bb:82:4d:fc:2e:17:c4:e2:35:6d:a1:ef:52:57:db:d3:
        5c:56:2a:15:24:9d:e3:6a:55:be:77:cf:94:1f:c4:12:ff:ea:
        23:13:13:18:ec:4d:8d:8f:19:a5:8d:0a:b2:fa:aa:d6:1f:11:
        8f:e3:92:78:91:6a:d7:4d:e5:89:27:4b:20:6e:51:e2:1e:51:
        03:46:af:37:33:8d:4e:db:cf:d1:0c:61:a3:a8:a1:38:9a:eb:
        28:5b:db:f2:8a:09:7b:92:3d:e8:ba:63:eb:19:24:3f:5f:58:
        b2:49:94:9f:7a:01:72:76:95:5f:ab:d6:e7:26:67:9c:a6:de:
        90:89:7b:de:ed:0e:45:40:24:1b:0d:86:7e:85:11:e6:84:20:
        ff:12:24:37:21:89:43:71:91:1b:69:e3:b4:1e:d6:05:6d:07:
        66:96:95:f0:6f:83:d3:e3:7b:f8:c6:0b:86:55:ab:1f:31:03:
        a6:57:a2:a6:68:d6:d6:95:cf:dc:f9:e4:4e:3d:ab:6b:8e:8f:
        1d:e9:e2:c5:63:6a:60:7f:17:14:cd:aa:f4:c0:c1:30:e1:83:
        7d:d3:0f:cf:52:f2:65:8e
-----BEGIN CERTIFICATE-----
MIIFUjCCAzqgAwIBAgIBAjANBgkqhkiG9w0BAQUFADCBhjELMAkGA1UEBhMCQkEx
CzAJBgNVBAgTAlJTMRMwEQYDVQQHEwpCYW5qYSBMdWthMSEwHwYDVQQKExhFbGVr
dHJvdGVobmlja2kgZmFrdWx0ZXQxDDAKBgNVBAsTA0VURjEOMAwGA1UEAxMFYWRt
aW4xFDASBgkqhkiG9w0BCQEWBWFkbWluMB4XDTIzMDYwODE0MDM1MVoXDTIzMTIw
NTE0MDM1MVowdDELMAkGA1UEBhMCQkExCzAJBgNVBAgTAlJTMSEwHwYDVQQKExhF
bGVrdHJvdGVobmlja2kgZmFrdWx0ZXQxDDAKBgNVBAsTA0VURjELMAkGA1UEAxMC
b3AxGjAYBgkqhkiG9w0BCQEWC29wQG1haWwuY29tMIIBIjANBgkqhkiG9w0BAQEF
AAOCAQ8AMIIBCgKCAQEA1qtQUj0y0F29oDYNbiJdpz4hgiJdoQrW90IXNTdC7R92
9UP2RPZa+k/cf1K9QDLICHisIH3R8um7QA/DLVqmxVS7ks/WvUibvlaqzLsWzGhp
MGXD/XNYSQ5E6C3IVUHfcGuXyCw/eXviRmf4EY7g2xiJbdx4CXKvTM9nVSx5TMAl
DjEoXzlec7eIwnU/ImkaDe9XEHAW3tjPJFvp03MIDvEdU497T0/SHXR3UaNgk93H
fKW2HuQEtQ1wNGCDQuPOCfQ7iX3WDPSWIeu7tszCh+dcU7ycrBXUw3daEvD+03ue
/pil7ZJWCfZN0SFc2fa3+C23WB9epLvR7aZZpKJ70QIDAQABo4HbMIHYMAkGA1Ud
EwQCMAAwCwYDVR0PBAQDAgeAMB0GA1UdJQQWMBQGCCsGAQUFBwMCBggrBgEFBQcD
ATAsBglghkgBhvhCAQ0EHxYdT3BlblNTTCBHZW5lcmF0ZWQgQ2VydGlmaWNhdGUw
HQYDVR0OBBYEFNZija9+Mx7CxFDa00AJDvMtb7LEMB8GA1UdIwQYMBaAFMxZFFwy
LnrHl/nxIr2vI/scfGzvMDEGA1UdHwQqMCgwJqAkoCKGIGh0dHA6Ly8xOTIuMTY4
LjIxLjg5L3Jvb3RjcmwucGVtMA0GCSqGSIb3DQEBBQUAA4ICAQA1aQJv+BuZICAP
ARAt9s63EmZNPkVDdCaaCUaH9VqrMc7dge0x7L1ZPz10aGt10++a6c4PL29goE4U
TxWwz7DYupekFMLR8mIL/7qsIMvVzQBvROvpbs4YpMoC2fjiB6yYe5EscaOlFyEx
g/2qcd57cTutJg8az3v2kknTVyIQEqea79Npeyctyi+NouOe87sDu3om4ku5IQP4
GXpfsSt+7b1KH7V6K0Tn5yQfaZlNMOspxLetEWE9GZi/8mR0JFX/llAY7OfUNUH3
FYpKbe6b0KuJwqxbRdRNokryKVKedF+3F+qFmvnspbDPR+8iL1oJ0q2mQzOgc0VK
1WvwRJf2nHtU4nqR6LFbeykTlHaolCjN0bGKJD8ifCTB4ZMqkTs96LuCTfwuF8Ti
NW2h71JX29NcVioVJJ3jalW+d8+UH8QS/+ojExMY7E2NjxmljQqy+qrWHxGP45J4
kWrXTeWJJ0sgblHiHlEDRq83M41O28/RDGGjqKE4musoW9vyigl7kj3oumPrGSQ/
X1iySZSfegFydpVfq9bnJmecpt6QiXve7Q5FQCQbDYZ+hRHmhCD/EiQ3IYlDcZEb
aeO0HtYFbQdmlpXwb4PT43v4xguGVasfMQOmV6KmaNbWlc/c+eROPatrjo8d6eLF
Y2pgfxcUzar0wMEw4YN90w/PUvJljg==
-----END CERTIFICATE-----
